target datalayout = "e-m:e-p270:32:32-p271:32:32-p272:64:64-i64:64-i128:128-f80:128-n8:16:32:64-S128"
target triple = "x86_64-pc-linux-gnu"

%"class.doctest::String" = type { %union.anon.7 }
%union.anon.7 = type { %"struct.doctest::String::view", [8 x i8] }
%"struct.doctest::String::view" = type { ptr, i32, i32 }

; Function Attrs: mustprogress nounwind uwtable
define linkonce_odr dso_local noundef zeroext i1 @_ZNK7doctest6String9isOnStackEv(ptr noundef nonnull align 8 dereferenceable(24) %0) #1 comdat align 2 {
  %2 = alloca ptr, align 8
  store ptr %0, ptr %2, align 8, !tbaa !59
  %3 = load ptr, ptr %2, align 8
  %4 = getelementptr inbounds nuw %"class.doctest::String", ptr %3, i32 0, i32 0
  %5 = getelementptr inbounds nuw [24 x i8], ptr %4, i64 0, i64 23
  %6 = load i8, ptr %5, align 1, !tbaa !55
  %7 = sext i8 %6 to i32
  %8 = and i32 %7, 128
  %9 = icmp eq i32 %8, 0
  ret i1 %9
}

; Function Attrs: mustprogress nounwind uwtable
define internal noundef i32 @_ZN7doctest12_GLOBAL__N_17stricmpEPKcS2_(ptr noundef %0, ptr noundef %1) #1 {
  %3 = alloca i32, align 4
  %4 = alloca ptr, align 8
  %5 = alloca ptr, align 8
  %6 = alloca i32, align 4
  %7 = alloca i32, align 4
  store ptr %0, ptr %4, align 8, !tbaa !14
  store ptr %1, ptr %5, align 8, !tbaa !14
  br label %8

8:                                                ; preds = %30, %2
  call void @llvm.lifetime.start.p0(i64 4, ptr %6) #7
  %9 = load ptr, ptr %4, align 8, !tbaa !14
  %10 = load i8, ptr %9, align 1, !tbaa !55
  %11 = sext i8 %10 to i32
  %12 = call i32 @tolower(i32 noundef %11) #32
  %13 = load ptr, ptr %5, align 8, !tbaa !14
  %14 = load i8, ptr %13, align 1, !tbaa !55
  %15 = sext i8 %14 to i32
  %16 = call i32 @tolower(i32 noundef %15) #32
  %17 = sub nsw i32 %12, %16
  store i32 %17, ptr %6, align 4, !tbaa !4
  %18 = load i32, ptr %6, align 4, !tbaa !4
  %19 = icmp ne i32 %18, 0
  br i1 %19, label %24, label %20

20:                                               ; preds = %8
  %21 = load ptr, ptr %4, align 8, !tbaa !14
  %22 = load i8, ptr %21, align 1, !tbaa !55
  %23 = icmp ne i8 %22, 0
  br i1 %23, label %26, label %24

24:                                               ; preds = %20, %8
  %25 = load i32, ptr %6, align 4, !tbaa !4
  store i32 %25, ptr %3, align 4
  store i32 1, ptr %7, align 4
  br label %27

26:                                               ; preds = %20
  store i32 0, ptr %7, align 4
  br label %27

27:                                               ; preds = %26, %24
  call void @llvm.lifetime.end.p0(i64 4, ptr %6) #7
  %28 = load i32, ptr %7, align 4
  switch i32 %28, label %37 [
    i32 0, label %29
    i32 1, label %35
  ]

29:                                               ; preds = %27
  br label %30

30:                                               ; preds = %29
  %31 = load ptr, ptr %4, align 8, !tbaa !14
  %32 = getelementptr inbounds nuw i8, ptr %31, i32 1
  store ptr %32, ptr %4, align 8, !tbaa !14
  %33 = load ptr, ptr %5, align 8, !tbaa !14
  %34 = getelementptr inbounds nuw i8, ptr %33, i32 1
  store ptr %34, ptr %5, align 8, !tbaa !14
  br label %8, !llvm.loop !66

35:                                               ; preds = %27
  %36 = load i32, ptr %3, align 4
  ret i32 %36

37:                                               ; preds = %27
  unreachable
}

; Function Attrs: mustprogress nounwind uwtable
define linkonce_odr dso_local noundef ptr @_ZN7doctest6String5c_strEv(ptr noundef nonnull align 8 dereferenceable(24) %0) #1 comdat align 2 {
  %2 = alloca ptr, align 8
  %3 = alloca ptr, align 8
  store ptr %0, ptr %3, align 8, !tbaa !59
  %4 = load ptr, ptr %3, align 8
  %5 = call noundef zeroext i1 @_ZNK7doctest6String9isOnStackEv(ptr noundef nonnull align 8 dereferenceable(24) %4) #7
  br i1 %5, label %6, label %9

6:                                                ; preds = %1
  %7 = getelementptr inbounds nuw %"class.doctest::String", ptr %4, i32 0, i32 0
  %8 = getelementptr inbounds [24 x i8], ptr %7, i64 0, i64 0
  store ptr %8, ptr %2, align 8
  br label %13

9:                                                ; preds = %1
  %10 = getelementptr inbounds nuw %"class.doctest::String", ptr %4, i32 0, i32 0
  %11 = getelementptr inbounds nuw %"struct.doctest::String::view", ptr %10, i32 0, i32 0
  %12 = load ptr, ptr %11, align 8, !tbaa !55
  store ptr %12, ptr %2, align 8
  br label %13

13:                                               ; preds = %9, %6
  %14 = load ptr, ptr %2, align 8
  ret ptr %14
}

; Function Attrs: mustprogress uwtable
define dso_local noundef i32 @_ZNK7doctest6String7compareEPKcb(ptr noundef nonnull align 8 dereferenceable(24) %0, ptr noundef %1, i1 noundef zeroext %2) #8 align 2 {
  %4 = alloca i32, align 4
  %5 = alloca ptr, align 8
  %6 = alloca ptr, align 8
  %7 = alloca i8, align 1
  store ptr %0, ptr %5, align 8, !tbaa !59
  store ptr %1, ptr %6, align 8, !tbaa !14
  %8 = zext i1 %2 to i8
  store i8 %8, ptr %7, align 1, !tbaa !16
  %9 = load ptr, ptr %5, align 8
  %10 = load i8, ptr %7, align 1, !tbaa !16, !range !36, !noundef !37
  %11 = trunc i8 %10 to i1
  br i1 %11, label %12, label %16

12:                                               ; preds = %3
  %13 = call noundef ptr @_ZNK7doctest6String5c_strEv(ptr noundef nonnull align 8 dereferenceable(24) %9)
  %14 = load ptr, ptr %6, align 8, !tbaa !14
  %15 = call noundef i32 @_ZN7doctest12_GLOBAL__N_17stricmpEPKcS2_(ptr noundef %13, ptr noundef %14)
  store i32 %15, ptr %4, align 4
  br label %20

16:                                               ; preds = %3
  %17 = call noundef ptr @_ZNK7doctest6String5c_strEv(ptr noundef nonnull align 8 dereferenceable(24) %9)
  %18 = load ptr, ptr %6, align 8, !tbaa !14
  %19 = call i32 @strcmp(ptr noundef %17, ptr noundef %18) #32
  store i32 %19, ptr %4, align 4
  br label %20

20:                                               ; preds = %16, %12
  %21 = load i32, ptr %4, align 4
  ret i32 %21
}

; Function Attrs: mustprogress uwtable
define linkonce_odr dso_local noundef ptr @_ZNK7doctest6String5c_strEv(ptr noundef nonnull align 8 dereferenceable(24) %0) #8 comdat align 2 {
  %2 = alloca ptr, align 8
  store ptr %0, ptr %2, align 8, !tbaa !59
  %3 = load ptr, ptr %2, align 8
  %4 = call noundef ptr @_ZN7doctest6String5c_strEv(ptr noundef nonnull align 8 dereferenceable(24) %3)
  ret ptr %4
}

; Function Attrs: mustprogress uwtable
define dso_local noundef i32 @_ZNK7doctest6String7compareERKS0_b(ptr noundef nonnull align 8 dereferenceable(24) %0, ptr noundef nonnull align 8 dereferenceable(24) %1, i1 noundef zeroext %2) #8 align 2 {
  %4 = alloca ptr, align 8
  %5 = alloca ptr, align 8
  %6 = alloca i8, align 1
  store ptr %0, ptr %4, align 8, !tbaa !59
  store ptr %1, ptr %5, align 8, !tbaa !59
  %7 = zext i1 %2 to i8
  store i8 %7, ptr %6, align 1, !tbaa !16
  %8 = load ptr, ptr %4, align 8
  %9 = load ptr, ptr %5, align 8, !tbaa !59
  %10 = call noundef ptr @_ZNK7doctest6String5c_strEv(ptr noundef nonnull align 8 dereferenceable(24) %9)
  %11 = load i8, ptr %6, align 1, !tbaa !16, !range !36, !noundef !37
  %12 = trunc i8 %11 to i1
  %13 = call noundef i32 @_ZNK7doctest6String7compareEPKcb(ptr noundef nonnull align 8 dereferenceable(24) %8, ptr noundef %10, i1 noundef zeroext %12)
  ret i32 %13
}

; Function Attrs: mustprogress uwtable
define dso_local noundef zeroext i1 @_ZN7doctestltERKNS_6StringES2_(ptr noundef nonnull align 8 dereferenceable(24) %0, ptr noundef nonnull align 8 dereferenceable(24) %1) #8 {
  %3 = alloca ptr, align 8
  %4 = alloca ptr, align 8
  store ptr %0, ptr %3, align 8, !tbaa !59
  store ptr %1, ptr %4, align 8, !tbaa !59
  %5 = load ptr, ptr %3, align 8, !tbaa !59
  %6 = load ptr, ptr %4, align 8, !tbaa !59
  %7 = call noundef i32 @_ZNK7doctest6String7compareERKS0_b(ptr noundef nonnull align 8 dereferenceable(24) %5, ptr noundef nonnull align 8 dereferenceable(24) %6, i1 noundef zeroext false)
  %8 = icmp slt i32 %7, 0
  ret i1 %8
}