; Function Attrs: mustprogress nofree nounwind willreturn memory(read, inaccessiblemem: none) uwtable
define dso_local noundef zeroext i1 @_ZN7doctestltERKNS_6StringES2_(ptr noundef nonnull readonly align 8 captures(none) dereferenceable(24) %0, ptr noundef nonnull readonly align 8 captures(none) dereferenceable(24) %1) local_unnamed_addr #21 {
  %3 = getelementptr inbounds nuw i8, ptr %1, i64 23
  %4 = load i8, ptr %3, align 1, !tbaa !38
  %5 = load ptr, ptr %1, align 8
  %6 = icmp slt i8 %4, 0
  %.0.i.i.i = select i1 %6, ptr %5, ptr %1
  %7 = getelementptr inbounds nuw i8, ptr %0, i64 23
  %8 = load i8, ptr %7, align 1, !tbaa !38
  %9 = load ptr, ptr %0, align 8
  %10 = icmp slt i8 %8, 0
  %.0.i.i.i.i = select i1 %10, ptr %9, ptr %0
  %11 = tail call i32 @strcmp(ptr noundef nonnull dereferenceable(1) %.0.i.i.i.i, ptr noundef nonnull readonly dereferenceable(1) %.0.i.i.i) #52
  %12 = icmp slt i32 %11, 0
  ret i1 %12
}